target datalayout = "e-m:e-p270:32:32-p271:32:32-p272:64:64-i64:64-i128:128-f80:128-n8:16:32:64-S128"
target triple = "x86_64-pc-linux-gnu"

%struct.suspend_int_msg = type { i32, i16 }

; Function Attrs: nounwind uwtable
define internal void @_pack_suspend_int_msg(ptr noundef %0, ptr noundef %1, i16 noundef zeroext %2) #0 {
  %4 = alloca ptr, align 8
  %5 = alloca ptr, align 8
  %6 = alloca i16, align 2
  store ptr %0, ptr %4, align 8
  store ptr %1, ptr %5, align 8
  store i16 %2, ptr %6, align 2
  %7 = load i16, ptr %6, align 2
  %8 = zext i16 %7 to i32
  %9 = icmp sge i32 %8, 10240
  br i1 %9, label %10, label %19

10:                                               ; preds = %3
  %11 = load ptr, ptr %4, align 8
  %12 = getelementptr inbounds nuw %struct.suspend_int_msg, ptr %11, i32 0, i32 0
  %13 = load i32, ptr %12, align 4
  %14 = load ptr, ptr %5, align 8
  call void @pack32(i32 noundef %13, ptr noundef %14)
  %15 = load ptr, ptr %4, align 8
  %16 = getelementptr inbounds nuw %struct.suspend_int_msg, ptr %15, i32 0, i32 1
  %17 = load i16, ptr %16, align 4
  %18 = load ptr, ptr %5, align 8
  call void @pack16(i16 noundef zeroext %17, ptr noundef %18)
  br label %19

19:                                               ; preds = %10, %3
  ret void
}